target datalayout = "e-m:e-p270:32:32-p271:32:32-p272:64:64-i64:64-i128:128-f80:128-n8:16:32:64-S128"
target triple = "x86_64-pc-linux-gnu"

%"class.std::__cxx11::basic_string" = type { %"struct.std::__cxx11::basic_string<char>::_Alloc_hider", i64, %union.anon }
%"struct.std::__cxx11::basic_string<char>::_Alloc_hider" = type { ptr }
%union.anon = type { i64, [8 x i8] }
%"class.std::allocator" = type { i8 }
%"class.std::basic_streambuf" = type { ptr, ptr, ptr, ptr, ptr, ptr, ptr, %"class.std::locale" }
%"class.std::locale" = type { ptr }
%"class.boost::basic_format" = type { %"class.std::vector.146", %"class.std::vector.151", i32, i32, i32, i8, %"class.std::__cxx11::basic_string", i8, [7 x i8], %"class.boost::io::basic_altstringbuf", %"class.boost::optional" }
%"class.std::vector.146" = type { %"struct.std::_Vector_base.147" }
%"struct.std::_Vector_base.147" = type { %"struct.std::_Vector_base<boost::io::detail::format_item<char, std::char_traits<char>, std::allocator<char>>, std::allocator<boost::io::detail::format_item<char, std::char_traits<char>, std::allocator<char>>>>::_Vector_impl" }
%"struct.std::_Vector_base<boost::io::detail::format_item<char, std::char_traits<char>, std::allocator<char>>, std::allocator<boost::io::detail::format_item<char, std::char_traits<char>, std::allocator<char>>>>::_Vector_impl" = type { %"struct.std::_Vector_base<boost::io::detail::format_item<char, std::char_traits<char>, std::allocator<char>>, std::allocator<boost::io::detail::format_item<char, std::char_traits<char>, std::allocator<char>>>>::_Vector_impl_data" }
%"struct.std::_Vector_base<boost::io::detail::format_item<char, std::char_traits<char>, std::allocator<char>>, std::allocator<boost::io::detail::format_item<char, std::char_traits<char>, std::allocator<char>>>>::_Vector_impl_data" = type { ptr, ptr, ptr }
%"class.std::vector.151" = type { %"struct.std::_Bvector_base" }
%"struct.std::_Bvector_base" = type { %"struct.std::_Bvector_base<std::allocator<bool>>::_Bvector_impl" }
%"struct.std::_Bvector_base<std::allocator<bool>>::_Bvector_impl" = type { %"struct.std::_Bvector_base<std::allocator<bool>>::_Bvector_impl_data" }
%"struct.std::_Bvector_base<std::allocator<bool>>::_Bvector_impl_data" = type { %"struct.std::_Bit_iterator", %"struct.std::_Bit_iterator", ptr }
%"struct.std::_Bit_iterator" = type { %"struct.std::_Bit_iterator_base.base", [4 x i8] }
%"struct.std::_Bit_iterator_base.base" = type <{ ptr, i32 }>
%"class.boost::io::basic_altstringbuf" = type <{ %"class.std::basic_streambuf", ptr, i8, [3 x i8], i32, %"class.std::allocator", [7 x i8] }>
%"class.boost::optional" = type { %"class.boost::optional_detail::optional_base" }
%"class.boost::optional_detail::optional_base" = type { i8, [7 x i8], %"class.boost::optional_detail::aligned_storage" }
%"class.boost::optional_detail::aligned_storage" = type { %"union.boost::optional_detail::aligned_storage<std::locale>::dummy_u" }
%"union.boost::optional_detail::aligned_storage<std::locale>::dummy_u" = type { [8 x i8] }

@.str.46 = private unnamed_addr constant [8 x i8] c"%1%.%2%\00", align 1
@.str.47 = private unnamed_addr constant [8 x i8] c"unknown\00", align 1

; Function Attrs: mustprogress nounwind uwtable
define linkonce_odr noundef zeroext i8 @_ZN5boost12basic_formatIcSt11char_traitsIcESaIcEE10exceptionsEh(ptr noundef nonnull align 8 dereferenceable(224) %0, i8 noundef zeroext %1) #2 comdat align 2 {
  %3 = alloca ptr, align 8
  %4 = alloca i8, align 1
  %5 = alloca i8, align 1
  store ptr %0, ptr %3, align 8
  store i8 %1, ptr %4, align 1
  %6 = load ptr, ptr %3, align 8
  %7 = getelementptr inbounds %"class.boost::basic_format", ptr %6, i32 0, i32 7
  %8 = load i8, ptr %7, align 8
  store i8 %8, ptr %5, align 1
  %9 = load i8, ptr %4, align 1
  %10 = getelementptr inbounds %"class.boost::basic_format", ptr %6, i32 0, i32 7
  store i8 %9, ptr %10, align 8
  %11 = load i8, ptr %5, align 1
  ret i8 %11
}

; Function Attrs: mustprogress uwtable
define linkonce_odr void @_ZN3nix13setExceptionsERN5boost12basic_formatIcSt11char_traitsIcESaIcEEE(ptr noundef nonnull align 8 dereferenceable(224) %0) #5 comdat {
  %2 = alloca ptr, align 8
  store ptr %0, ptr %2, align 8
  %3 = load ptr, ptr %2, align 8
  %4 = call noundef zeroext i8 @_ZN5boost12basic_formatIcSt11char_traitsIcESaIcEE10exceptionsEh(ptr noundef nonnull align 8 dereferenceable(224) %3, i8 noundef zeroext -7)
  ret void
}

; Function Attrs: mustprogress uwtable
define linkonce_odr void @_ZN3nix3fmtIJjjEEENSt7__cxx1112basic_stringIcSt11char_traitsIcESaIcEEERKS6_DpRKT_(ptr dead_on_unwind noalias writable sret(%"class.std::__cxx11::basic_string") align 8 %0, ptr noundef nonnull align 8 dereferenceable(32) %1, ptr noundef nonnull align 4 dereferenceable(4) %2, ptr noundef nonnull align 4 dereferenceable(4) %3) #5 comdat personality ptr @__gxx_personality_v0 {
  %5 = alloca ptr, align 8
  %6 = alloca ptr, align 8
  %7 = alloca ptr, align 8
  %8 = alloca ptr, align 8
  %9 = alloca %"class.boost::basic_format", align 8
  %10 = alloca ptr, align 8
  %11 = alloca i32, align 4
  store ptr %0, ptr %5, align 8
  store ptr %1, ptr %6, align 8
  store ptr %2, ptr %7, align 8
  store ptr %3, ptr %8, align 8
  %12 = load ptr, ptr %6, align 8
  call void @_ZN5boost12basic_formatIcSt11char_traitsIcESaIcEEC2ERKNSt7__cxx1112basic_stringIcS2_S3_EE(ptr noundef nonnull align 8 dereferenceable(224) %9, ptr noundef nonnull align 8 dereferenceable(32) %12)
  invoke void @_ZN3nix13setExceptionsERN5boost12basic_formatIcSt11char_traitsIcESaIcEEE(ptr noundef nonnull align 8 dereferenceable(224) %9)
          to label %13 unwind label %18

13:                                               ; preds = %4
  %14 = load ptr, ptr %7, align 8
  %15 = load ptr, ptr %8, align 8
  invoke void @_ZN3nix12formatHelperIN5boost12basic_formatIcSt11char_traitsIcESaIcEEEjJjEEEvRT_RKT0_DpRKT1_(ptr noundef nonnull align 8 dereferenceable(224) %9, ptr noundef nonnull align 4 dereferenceable(4) %14, ptr noundef nonnull align 4 dereferenceable(4) %15)
          to label %16 unwind label %18

16:                                               ; preds = %13
  invoke void @_ZNK5boost12basic_formatIcSt11char_traitsIcESaIcEE3strB5cxx11Ev(ptr dead_on_unwind writable sret(%"class.std::__cxx11::basic_string") align 8 %0, ptr noundef nonnull align 8 dereferenceable(224) %9)
          to label %17 unwind label %18

17:                                               ; preds = %16
  call void @_ZN5boost12basic_formatIcSt11char_traitsIcESaIcEED2Ev(ptr noundef nonnull align 8 dereferenceable(224) %9) #1
  ret void

18:                                               ; preds = %16, %13, %4
  %19 = landingpad { ptr, i32 }
          cleanup
  %20 = extractvalue { ptr, i32 } %19, 0
  store ptr %20, ptr %10, align 8
  %21 = extractvalue { ptr, i32 } %19, 1
  store i32 %21, ptr %11, align 4
  call void @_ZN5boost12basic_formatIcSt11char_traitsIcESaIcEED2Ev(ptr noundef nonnull align 8 dereferenceable(224) %9) #1
  br label %22

22:                                               ; preds = %18
  %23 = load ptr, ptr %10, align 8
  %24 = load i32, ptr %11, align 4
  %25 = insertvalue { ptr, i32 } poison, ptr %23, 0
  %26 = insertvalue { ptr, i32 } %25, i32 %24, 1
  resume { ptr, i32 } %26
}

; Function Attrs: mustprogress uwtable
define internal void @_ZN12_GLOBAL__N_114formatProtocolB5cxx11Ej(ptr dead_on_unwind noalias writable sret(%"class.std::__cxx11::basic_string") align 8 %0, i32 noundef %1) #5 personality ptr @__gxx_personality_v0 {
  %3 = alloca ptr, align 8
  %4 = alloca i32, align 4
  %5 = alloca i32, align 4
  %6 = alloca i32, align 4
  %7 = alloca %"class.std::__cxx11::basic_string", align 8
  %8 = alloca %"class.std::allocator", align 1
  %9 = alloca ptr, align 8
  %10 = alloca i32, align 4
  %11 = alloca %"class.std::allocator", align 1
  store ptr %0, ptr %3, align 8
  store i32 %1, ptr %4, align 4
  %12 = load i32, ptr %4, align 4
  %13 = icmp ne i32 %12, 0
  br i1 %13, label %14, label %31

14:                                               ; preds = %2
  %15 = load i32, ptr %4, align 4
  %16 = and i32 %15, 65280
  %17 = lshr i32 %16, 8
  store i32 %17, ptr %5, align 4
  %18 = load i32, ptr %4, align 4
  %19 = and i32 %18, 255
  store i32 %19, ptr %6, align 4
  call void @_ZNSaIcEC1Ev(ptr noundef nonnull align 1 dereferenceable(1) %8) #1
  invoke void @_ZNSt7__cxx1112basic_stringIcSt11char_traitsIcESaIcEEC2IS3_EEPKcRKS3_(ptr noundef nonnull align 8 dereferenceable(32) %7, ptr noundef @.str.46, ptr noundef nonnull align 1 dereferenceable(1) %8)
          to label %20 unwind label %22

20:                                               ; preds = %14
  invoke void @_ZN3nix3fmtIJjjEEENSt7__cxx1112basic_stringIcSt11char_traitsIcESaIcEEERKS6_DpRKT_(ptr dead_on_unwind writable sret(%"class.std::__cxx11::basic_string") align 8 %0, ptr noundef nonnull align 8 dereferenceable(32) %7, ptr noundef nonnull align 4 dereferenceable(4) %5, ptr noundef nonnull align 4 dereferenceable(4) %6)
          to label %21 unwind label %26

21:                                               ; preds = %20
  call void @_ZNSt7__cxx1112basic_stringIcSt11char_traitsIcESaIcEED2Ev(ptr noundef nonnull align 8 dereferenceable(32) %7) #1
  call void @_ZNSaIcED1Ev(ptr noundef nonnull align 1 dereferenceable(1) %8) #1
  br label %37

22:                                               ; preds = %14
  %23 = landingpad { ptr, i32 }
          cleanup
  %24 = extractvalue { ptr, i32 } %23, 0
  store ptr %24, ptr %9, align 8
  %25 = extractvalue { ptr, i32 } %23, 1
  store i32 %25, ptr %10, align 4
  br label %30

26:                                               ; preds = %20
  %27 = landingpad { ptr, i32 }
          cleanup
  %28 = extractvalue { ptr, i32 } %27, 0
  store ptr %28, ptr %9, align 8
  %29 = extractvalue { ptr, i32 } %27, 1
  store i32 %29, ptr %10, align 4
  call void @_ZNSt7__cxx1112basic_stringIcSt11char_traitsIcESaIcEED2Ev(ptr noundef nonnull align 8 dereferenceable(32) %7) #1
  br label %30

30:                                               ; preds = %26, %22
  call void @_ZNSaIcED1Ev(ptr noundef nonnull align 1 dereferenceable(1) %8) #1
  br label %38

31:                                               ; preds = %2
  call void @_ZNSaIcEC1Ev(ptr noundef nonnull align 1 dereferenceable(1) %11) #1
  invoke void @_ZNSt7__cxx1112basic_stringIcSt11char_traitsIcESaIcEEC2IS3_EEPKcRKS3_(ptr noundef nonnull align 8 dereferenceable(32) %0, ptr noundef @.str.47, ptr noundef nonnull align 1 dereferenceable(1) %11)
          to label %32 unwind label %33

32:                                               ; preds = %31
  call void @_ZNSaIcED1Ev(ptr noundef nonnull align 1 dereferenceable(1) %11) #1
  br label %37

33:                                               ; preds = %31
  %34 = landingpad { ptr, i32 }
          cleanup
  %35 = extractvalue { ptr, i32 } %34, 0
  store ptr %35, ptr %9, align 8
  %36 = extractvalue { ptr, i32 } %34, 1
  store i32 %36, ptr %10, align 4
  call void @_ZNSaIcED1Ev(ptr noundef nonnull align 1 dereferenceable(1) %11) #1
  br label %38

37:                                               ; preds = %32, %21
  ret void

38:                                               ; preds = %33, %30
  %39 = load ptr, ptr %9, align 8
  %40 = load i32, ptr %10, align 4
  %41 = insertvalue { ptr, i32 } poison, ptr %39, 0
  %42 = insertvalue { ptr, i32 } %41, i32 %40, 1
  resume { ptr, i32 } %42
}