; Function Attrs: mustprogress uwtable
define internal fastcc void @_ZN12_GLOBAL__N_114formatProtocolB5cxx11Ej(ptr dead_on_unwind noalias writable align 8 %0, i32 noundef %1) unnamed_addr #4 personality ptr @__gxx_personality_v0 {
  %3 = alloca %"class.boost::basic_format", align 8
  %4 = alloca i32, align 4
  %5 = alloca i32, align 4
  %6 = alloca %"class.std::__cxx11::basic_string", align 8
  %7 = alloca %"class.std::allocator", align 1
  %8 = alloca %"class.std::allocator", align 1
  %.not = icmp eq i32 %1, 0
  br i1 %.not, label %29, label %9

9:                                                ; preds = %2
  %10 = lshr i32 %1, 8
  %11 = and i32 %10, 255
  store i32 %11, ptr %4, align 4
  %12 = and i32 %1, 255
  store i32 %12, ptr %5, align 4
  call void @_ZNSaIcEC1Ev(ptr noundef nonnull align 1 dereferenceable(1) %7) #26
  invoke void @_ZNSt7__cxx1112basic_stringIcSt11char_traitsIcESaIcEEC2IS3_EEPKcRKS3_(ptr noundef nonnull align 8 dereferenceable(32) %6, ptr noundef nonnull @.str.46, ptr noundef nonnull align 1 dereferenceable(1) %7)
          to label %13 unwind label %25

13:                                               ; preds = %9
  call void @llvm.lifetime.start.p0(i64 224, ptr nonnull %3)
  invoke void @_ZN5boost12basic_formatIcSt11char_traitsIcESaIcEEC2ERKNSt7__cxx1112basic_stringIcS2_S3_EE(ptr noundef nonnull align 8 dereferenceable(224) %3, ptr noundef nonnull align 8 dereferenceable(32) %6)
          to label %.noexc unwind label %27

.noexc:                                           ; preds = %13
  %14 = getelementptr inbounds i8, ptr %3, i64 112
  store i8 -7, ptr %14, align 8, !noalias !37
  invoke void @_ZN3nix12formatHelperIN5boost12basic_formatIcSt11char_traitsIcESaIcEEEjJjEEEvRT_RKT0_DpRKT1_(ptr noundef nonnull align 8 dereferenceable(224) %3, ptr noundef nonnull align 4 dereferenceable(4) %4, ptr noundef nonnull align 4 dereferenceable(4) %5)
          to label %15 unwind label %16, !noalias !37

15:                                               ; preds = %.noexc
  invoke void @_ZNK5boost12basic_formatIcSt11char_traitsIcESaIcEE3strB5cxx11Ev(ptr dead_on_unwind writable sret(%"class.std::__cxx11::basic_string") align 8 %0, ptr noundef nonnull align 8 dereferenceable(224) %3)
          to label %18 unwind label %16

16:                                               ; preds = %15, %.noexc
  %17 = landingpad { ptr, i32 }
          cleanup
  call void @_ZN5boost12basic_formatIcSt11char_traitsIcESaIcEED2Ev(ptr noundef nonnull align 8 dereferenceable(224) %3) #26
  br label %.body

18:                                               ; preds = %15
  call void @_ZN5boost12basic_formatIcSt11char_traitsIcESaIcEED2Ev(ptr noundef nonnull align 8 dereferenceable(224) %3) #26
  call void @llvm.lifetime.end.p0(i64 224, ptr nonnull %3)
  %19 = load ptr, ptr %6, align 8
  %20 = getelementptr inbounds i8, ptr %6, i64 16
  %21 = icmp eq ptr %19, %20
  br i1 %21, label %_ZNKSt7__cxx1112basic_stringIcSt11char_traitsIcESaIcEE11_M_is_localEv.exit.thread.i.i, label %_ZNKSt7__cxx1112basic_stringIcSt11char_traitsIcESaIcEE11_M_is_localEv.exit.i.i

_ZNKSt7__cxx1112basic_stringIcSt11char_traitsIcESaIcEE11_M_is_localEv.exit.thread.i.i: ; preds = %18
  %22 = getelementptr inbounds i8, ptr %6, i64 8
  %23 = load i64, ptr %22, align 8
  %24 = icmp ult i64 %23, 16
  call void @llvm.assume(i1 %24)
  br label %_ZNSt7__cxx1112basic_stringIcSt11char_traitsIcESaIcEED2Ev.exit

_ZNKSt7__cxx1112basic_stringIcSt11char_traitsIcESaIcEE11_M_is_localEv.exit.i.i: ; preds = %18
  call void @_ZdlPv(ptr noundef %19) #29
  br label %_ZNSt7__cxx1112basic_stringIcSt11char_traitsIcESaIcEED2Ev.exit

_ZNSt7__cxx1112basic_stringIcSt11char_traitsIcESaIcEED2Ev.exit: ; preds = %_ZNKSt7__cxx1112basic_stringIcSt11char_traitsIcESaIcEE11_M_is_localEv.exit.thread.i.i, %_ZNKSt7__cxx1112basic_stringIcSt11char_traitsIcESaIcEE11_M_is_localEv.exit.i.i
  call void @_ZNSaIcED2Ev(ptr noundef nonnull align 1 dereferenceable(1) %6) #26
  br label %32

25:                                               ; preds = %9
  %26 = landingpad { ptr, i32 }
          cleanup
  br label %33

27:                                               ; preds = %13
  %28 = landingpad { ptr, i32 }
          cleanup
  br label %.body

.body:                                            ; preds = %16, %27
  %eh.lpad-body = phi { ptr, i32 } [ %28, %27 ], [ %17, %16 ]
  call void @_ZNSt7__cxx1112basic_stringIcSt11char_traitsIcESaIcEED2Ev(ptr noundef nonnull align 8 dereferenceable(32) %6) #26
  br label %33

29:                                               ; preds = %2
  call void @_ZNSaIcEC1Ev(ptr noundef nonnull align 1 dereferenceable(1) %8) #26
  invoke void @_ZNSt7__cxx1112basic_stringIcSt11char_traitsIcESaIcEEC2IS3_EEPKcRKS3_(ptr noundef nonnull align 8 dereferenceable(32) %0, ptr noundef nonnull @.str.47, ptr noundef nonnull align 1 dereferenceable(1) %8)
          to label %32 unwind label %30

30:                                               ; preds = %29
  %31 = landingpad { ptr, i32 }
          cleanup
  br label %33

32:                                               ; preds = %29, %_ZNSt7__cxx1112basic_stringIcSt11char_traitsIcESaIcEED2Ev.exit
  %.sink = phi ptr [ %7, %_ZNSt7__cxx1112basic_stringIcSt11char_traitsIcESaIcEED2Ev.exit ], [ %8, %29 ]
  call void @_ZNSaIcED1Ev(ptr noundef nonnull align 1 dereferenceable(1) %.sink) #26
  ret void

33:                                               ; preds = %25, %.body, %30
  %.sink9 = phi ptr [ %8, %30 ], [ %7, %.body ], [ %7, %25 ]
  %.pn.pn = phi { ptr, i32 } [ %31, %30 ], [ %eh.lpad-body, %.body ], [ %26, %25 ]
  call void @_ZNSaIcED1Ev(ptr noundef nonnull align 1 dereferenceable(1) %.sink9) #26
  resume { ptr, i32 } %.pn.pn
}